target datalayout = "e-m:e-p270:32:32-p271:32:32-p272:64:64-i64:64-i128:128-f80:128-n8:16:32:64-S128"
target triple = "x86_64-pc-linux-gnu"

%struct.RString = type { %struct.RBasic, i64, %union.anon }
%struct.RBasic = type { i64, i64 }
%union.anon = type { %struct.anon.0 }
%struct.anon.0 = type { ptr, %union.anon.1 }
%union.anon.1 = type { i64 }
%struct.anon.2 = type { [1 x i8] }

@rb_cInteger = external global i64, align 8
@.str = private unnamed_addr constant [6 x i8] c"<any>\00", align 1
@.str.1 = private unnamed_addr constant [12 x i8] c"<broadcast>\00", align 1
@rb_eArgError = external global i64, align 8
@.str.2 = private unnamed_addr constant [24 x i8] c"hostname too long (%zu)\00", align 1

; Function Attrs: inlinehint nounwind sspstrong willreturn memory(read) uwtable
define internal i64 @RB_FL_TEST_RAW(i64 noundef %0, i64 noundef %1) #13 {
  %3 = alloca i64, align 8
  %4 = alloca i64, align 8
  store i64 %0, ptr %3, align 8, !tbaa !31
  store i64 %1, ptr %4, align 8, !tbaa !31
  %5 = load i64, ptr %3, align 8, !tbaa !31
  %6 = inttoptr i64 %5 to ptr
  %7 = getelementptr inbounds nuw %struct.RBasic, ptr %6, i32 0, i32 0
  %8 = load i64, ptr %7, align 8, !tbaa !178
  %9 = load i64, ptr %4, align 8, !tbaa !31
  %10 = and i64 %8, %9
  ret i64 %10
}

; Function Attrs: alwaysinline nounwind
define internal ptr @memcpy.inline(ptr noalias nonnull %0, ptr noalias nonnull %1, i64 %2) #12 {
  %4 = alloca ptr, align 8
  %5 = alloca ptr, align 8
  %6 = alloca i64, align 8
  store ptr %0, ptr %4, align 8, !tbaa !26
  store ptr %1, ptr %5, align 8, !tbaa !26
  store i64 %2, ptr %6, align 8, !tbaa !31
  %7 = load ptr, ptr %4, align 8, !tbaa !26
  %8 = load ptr, ptr %5, align 8, !tbaa !26
  %9 = load i64, ptr %6, align 8, !tbaa !31
  %10 = load ptr, ptr %4, align 8, !tbaa !26
  %11 = call i64 @llvm.objectsize.i64.p0(ptr %10, i1 false, i1 true, i1 false)
  %12 = call ptr @__memcpy_chk(ptr noundef %7, ptr noundef %8, i64 noundef %9, i64 noundef %11) #24
  ret ptr %12
}

; Function Attrs: inlinehint nounwind sspstrong willreturn memory(read) uwtable
define internal i64 @RSTRING_LEN(i64 noundef %0) #13 {
  %2 = alloca i64, align 8
  store i64 %0, ptr %2, align 8, !tbaa !31
  %3 = load i64, ptr %2, align 8, !tbaa !31
  %4 = inttoptr i64 %3 to ptr
  %5 = getelementptr inbounds nuw %struct.RString, ptr %4, i32 0, i32 1
  %6 = load i64, ptr %5, align 8, !tbaa !52
  ret i64 %6
}

; Function Attrs: inlinehint nounwind sspstrong willreturn memory(read) uwtable
define internal zeroext i1 @RB_FL_ANY_RAW(i64 noundef %0, i64 noundef %1) #13 {
  %3 = alloca i64, align 8
  %4 = alloca i64, align 8
  store i64 %0, ptr %3, align 8, !tbaa !31
  store i64 %1, ptr %4, align 8, !tbaa !31
  %5 = load i64, ptr %3, align 8, !tbaa !31
  %6 = load i64, ptr %4, align 8, !tbaa !31
  %7 = call i64 @RB_FL_TEST_RAW(i64 noundef %5, i64 noundef %6) #30
  %8 = icmp ne i64 %7, 0
  ret i1 %8
}

; Function Attrs: inlinehint nounwind sspstrong memory(argmem: readwrite, inaccessiblemem: readwrite) uwtable
define internal nonnull ptr @ruby_nonempty_memcpy(ptr noundef nonnull %0, ptr noundef %1, i64 noundef %2) #4 {
  %4 = alloca ptr, align 8
  %5 = alloca ptr, align 8
  %6 = alloca ptr, align 8
  %7 = alloca i64, align 8
  store ptr %0, ptr %5, align 8, !tbaa !26
  store ptr %1, ptr %6, align 8, !tbaa !26
  store i64 %2, ptr %7, align 8, !tbaa !31
  %8 = load i64, ptr %7, align 8, !tbaa !31
  %9 = icmp ne i64 %8, 0
  br i1 %9, label %10, label %15

10:                                               ; preds = %3
  %11 = load ptr, ptr %5, align 8, !tbaa !26
  %12 = load ptr, ptr %6, align 8, !tbaa !26
  %13 = load i64, ptr %7, align 8, !tbaa !31
  %14 = call ptr @memcpy.inline(ptr noundef %11, ptr noundef %12, i64 noundef %13) #24
  store ptr %14, ptr %4, align 8
  br label %17

15:                                               ; preds = %3
  %16 = load ptr, ptr %5, align 8, !tbaa !26
  store ptr %16, ptr %4, align 8
  br label %17

17:                                               ; preds = %15, %10
  %18 = load ptr, ptr %4, align 8
  ret ptr %18
}

; Function Attrs: inlinehint nounwind sspstrong willreturn memory(read, argmem: readwrite) uwtable
define internal void @rbimpl_rstring_getmem(ptr dead_on_unwind noalias writable sret(%struct.RString) align 8 %0, i64 noundef %1) #7 {
  %3 = alloca i64, align 8
  store i64 %1, ptr %3, align 8, !tbaa !31
  %4 = load i64, ptr %3, align 8, !tbaa !31
  %5 = call zeroext i1 @RB_FL_ANY_RAW(i64 noundef %4, i64 noundef 8192) #30
  br i1 %5, label %6, label %9

6:                                                ; preds = %2
  %7 = load i64, ptr %3, align 8, !tbaa !31
  %8 = inttoptr i64 %7 to ptr
  call void @llvm.memcpy.p0.p0.i64(ptr align 8 %0, ptr align 8 %8, i64 40, i1 false), !tbaa.struct !62
  br label %20

9:                                                ; preds = %2
  %10 = load i64, ptr %3, align 8, !tbaa !31
  %11 = call i64 @RSTRING_LEN(i64 noundef %10) #30
  %12 = getelementptr inbounds nuw %struct.RString, ptr %0, i32 0, i32 1
  store i64 %11, ptr %12, align 8, !tbaa !52
  %13 = load i64, ptr %3, align 8, !tbaa !31
  %14 = inttoptr i64 %13 to ptr
  %15 = getelementptr inbounds nuw %struct.RString, ptr %14, i32 0, i32 2
  %16 = getelementptr inbounds nuw %struct.anon.2, ptr %15, i32 0, i32 0
  %17 = getelementptr inbounds [1 x i8], ptr %16, i64 0, i64 0
  %18 = getelementptr inbounds nuw %struct.RString, ptr %0, i32 0, i32 2
  %19 = getelementptr inbounds nuw %struct.anon.0, ptr %18, i32 0, i32 0
  store ptr %17, ptr %19, align 8, !tbaa !51
  br label %20

20:                                               ; preds = %9, %6
  ret void
}

; Function Attrs: inlinehint nounwind sspstrong uwtable
define internal i32 @__bswap_32(i32 noundef %0) #5 {
  %2 = alloca i32, align 4
  store i32 %0, ptr %2, align 4, !tbaa !27
  %3 = load i32, ptr %2, align 4, !tbaa !27
  %4 = and i32 %3, -16777216
  %5 = lshr i32 %4, 24
  %6 = load i32, ptr %2, align 4, !tbaa !27
  %7 = and i32 %6, 16711680
  %8 = lshr i32 %7, 8
  %9 = or i32 %5, %8
  %10 = load i32, ptr %2, align 4, !tbaa !27
  %11 = and i32 %10, 65280
  %12 = shl i32 %11, 8
  %13 = or i32 %9, %12
  %14 = load i32, ptr %2, align 4, !tbaa !27
  %15 = and i32 %14, 255
  %16 = shl i32 %15, 24
  %17 = or i32 %13, %16
  ret i32 %17
}

; Function Attrs: inlinehint nounwind sspstrong uwtable
define internal i32 @RB_NUM2UINT(i64 noundef %0) #5 {
  %2 = alloca i64, align 8
  %3 = alloca i64, align 8
  store i64 %0, ptr %2, align 8, !tbaa !31
  call void @llvm.lifetime.start.p0(i64 8, ptr %3) #24
  %4 = load i64, ptr %2, align 8, !tbaa !31
  %5 = call i64 @rb_num2uint(i64 noundef %4)
  store i64 %5, ptr %3, align 8, !tbaa !31
  %6 = load i64, ptr %3, align 8, !tbaa !31
  %7 = trunc i64 %6 to i32
  call void @llvm.lifetime.end.p0(i64 8, ptr %3) #24
  ret i32 %7
}

; Function Attrs: inlinehint nounwind sspstrong willreturn memory(none) uwtable
define internal zeroext i1 @RB_NIL_P(i64 noundef %0) #6 {
  %2 = alloca i64, align 8
  store i64 %0, ptr %2, align 8, !tbaa !31
  %3 = load i64, ptr %2, align 8, !tbaa !31
  %4 = icmp eq i64 %3, 4
  ret i1 %4
}

; Function Attrs: nounwind sspstrong uwtable
define ptr @host_str(i64 noundef %0, ptr noundef %1, i64 noundef %2, ptr noundef %3) #0 {
  %5 = alloca ptr, align 8
  %6 = alloca i64, align 8
  %7 = alloca ptr, align 8
  %8 = alloca i64, align 8
  %9 = alloca ptr, align 8
  %10 = alloca i32, align 4
  %11 = alloca ptr, align 8
  %12 = alloca i64, align 8
  %13 = alloca %struct.RString, align 8
  %14 = alloca i64, align 8
  store i64 %0, ptr %6, align 8, !tbaa !31
  store ptr %1, ptr %7, align 8, !tbaa !30
  store i64 %2, ptr %8, align 8, !tbaa !31
  store ptr %3, ptr %9, align 8, !tbaa !49
  %15 = load i64, ptr %6, align 8, !tbaa !31
  %16 = call zeroext i1 @RB_NIL_P(i64 noundef %15) #28
  br i1 %16, label %17, label %18

17:                                               ; preds = %4
  store ptr null, ptr %5, align 8
  br label %119

18:                                               ; preds = %4
  %19 = load i64, ptr %6, align 8, !tbaa !31
  %20 = load i64, ptr @rb_cInteger, align 8, !tbaa !31
  %21 = call i64 @rb_obj_is_kind_of(i64 noundef %19, i64 noundef %20)
  %22 = icmp ne i64 %21, 0
  br i1 %22, label %23, label %38

23:                                               ; preds = %18
  call void @llvm.lifetime.start.p0(i64 4, ptr %10) #24
  %24 = load i64, ptr %6, align 8, !tbaa !31
  %25 = call i32 @RB_NUM2UINT(i64 noundef %24)
  store i32 %25, ptr %10, align 4, !tbaa !27
  %26 = load i32, ptr %10, align 4, !tbaa !27
  %27 = call i32 @__bswap_32(i32 noundef %26)
  %28 = load ptr, ptr %7, align 8, !tbaa !30
  %29 = load i64, ptr %8, align 8, !tbaa !31
  call void @make_inetaddr(i32 noundef %27, ptr noundef %28, i64 noundef %29)
  %30 = load ptr, ptr %9, align 8, !tbaa !49
  %31 = icmp ne ptr %30, null
  br i1 %31, label %32, label %36

32:                                               ; preds = %23
  %33 = load ptr, ptr %9, align 8, !tbaa !49
  %34 = load i32, ptr %33, align 4, !tbaa !27
  %35 = or i32 %34, 4
  store i32 %35, ptr %33, align 4, !tbaa !27
  br label %36

36:                                               ; preds = %32, %23
  %37 = load ptr, ptr %7, align 8, !tbaa !30
  store ptr %37, ptr %5, align 8
  call void @llvm.lifetime.end.p0(i64 4, ptr %10) #24
  br label %119

38:                                               ; preds = %18
  call void @llvm.lifetime.start.p0(i64 8, ptr %11) #24
  call void @llvm.lifetime.start.p0(i64 8, ptr %12) #24
  %39 = call ptr @rb_string_value_cstr(ptr noundef %6)
  call void @llvm.lifetime.start.p0(i64 40, ptr %13) #24
  %40 = load i64, ptr %6, align 8, !tbaa !31
  call void @rbimpl_rstring_getmem(ptr dead_on_unwind writable sret(%struct.RString) align 8 %13, i64 noundef %40) #29
  %41 = getelementptr inbounds nuw %struct.RString, ptr %13, i32 0, i32 2
  %42 = getelementptr inbounds nuw %struct.anon.0, ptr %41, i32 0, i32 0
  %43 = load ptr, ptr %42, align 8, !tbaa !51
  store ptr %43, ptr %11, align 8, !tbaa !30
  %44 = getelementptr inbounds nuw %struct.RString, ptr %13, i32 0, i32 1
  %45 = load i64, ptr %44, align 8, !tbaa !52
  store i64 %45, ptr %12, align 8, !tbaa !31
  store i64 %45, ptr %14, align 8, !tbaa !31
  call void @llvm.lifetime.end.p0(i64 40, ptr %13) #24
  %46 = load i64, ptr %12, align 8, !tbaa !31
  %47 = icmp ne i64 %46, 0
  br i1 %47, label %48, label %64

48:                                               ; preds = %38
  %49 = load ptr, ptr %11, align 8, !tbaa !30
  %50 = getelementptr inbounds i8, ptr %49, i64 0
  %51 = load i8, ptr %50, align 1, !tbaa !51
  %52 = sext i8 %51 to i32
  %53 = load i8, ptr @.str, align 1, !tbaa !51
  %54 = sext i8 %53 to i32
  %55 = icmp eq i32 %52, %54
  br i1 %55, label %56, label %74

56:                                               ; preds = %48
  %57 = load i64, ptr %12, align 8, !tbaa !31
  %58 = icmp eq i64 5, %57
  br i1 %58, label %59, label %74

59:                                               ; preds = %56
  %60 = load ptr, ptr %11, align 8, !tbaa !30
  %61 = load i64, ptr %12, align 8, !tbaa !31
  %62 = call i32 @memcmp(ptr noundef %60, ptr noundef @.str, i64 noundef %61) #30
  %63 = icmp eq i32 %62, 0
  br i1 %63, label %64, label %74

64:                                               ; preds = %59, %38
  %65 = load ptr, ptr %7, align 8, !tbaa !30
  %66 = load i64, ptr %8, align 8, !tbaa !31
  call void @make_inetaddr(i32 noundef 0, ptr noundef %65, i64 noundef %66)
  %67 = load ptr, ptr %9, align 8, !tbaa !49
  %68 = icmp ne ptr %67, null
  br i1 %68, label %69, label %73

69:                                               ; preds = %64
  %70 = load ptr, ptr %9, align 8, !tbaa !49
  %71 = load i32, ptr %70, align 4, !tbaa !27
  %72 = or i32 %71, 4
  store i32 %72, ptr %70, align 4, !tbaa !27
  br label %73

73:                                               ; preds = %69, %64
  br label %117

74:                                               ; preds = %59, %56, %48
  %75 = load ptr, ptr %11, align 8, !tbaa !30
  %76 = getelementptr inbounds i8, ptr %75, i64 0
  %77 = load i8, ptr %76, align 1, !tbaa !51
  %78 = sext i8 %77 to i32
  %79 = load i8, ptr @.str.1, align 1, !tbaa !51
  %80 = sext i8 %79 to i32
  %81 = icmp eq i32 %78, %80
  br i1 %81, label %82, label %100

82:                                               ; preds = %74
  %83 = load i64, ptr %12, align 8, !tbaa !31
  %84 = icmp eq i64 11, %83
  br i1 %84, label %85, label %100

85:                                               ; preds = %82
  %86 = load ptr, ptr %11, align 8, !tbaa !30
  %87 = load i64, ptr %12, align 8, !tbaa !31
  %88 = call i32 @memcmp(ptr noundef %86, ptr noundef @.str.1, i64 noundef %87) #30
  %89 = icmp eq i32 %88, 0
  br i1 %89, label %90, label %100

90:                                               ; preds = %85
  %91 = load ptr, ptr %7, align 8, !tbaa !30
  %92 = load i64, ptr %8, align 8, !tbaa !31
  call void @make_inetaddr(i32 noundef -1, ptr noundef %91, i64 noundef %92)
  %93 = load ptr, ptr %9, align 8, !tbaa !49
  %94 = icmp ne ptr %93, null
  br i1 %94, label %95, label %99

95:                                               ; preds = %90
  %96 = load ptr, ptr %9, align 8, !tbaa !49
  %97 = load i32, ptr %96, align 4, !tbaa !27
  %98 = or i32 %97, 4
  store i32 %98, ptr %96, align 4, !tbaa !27
  br label %99

99:                                               ; preds = %95, %90
  br label %116

100:                                              ; preds = %85, %82, %74
  %101 = load i64, ptr %12, align 8, !tbaa !31
  %102 = load i64, ptr %8, align 8, !tbaa !31
  %103 = icmp uge i64 %101, %102
  br i1 %103, label %104, label %107

104:                                              ; preds = %100
  %105 = load i64, ptr @rb_eArgError, align 8, !tbaa !31
  %106 = load i64, ptr %12, align 8, !tbaa !31
  call void (i64, ptr, ...) @rb_raise(i64 noundef %105, ptr noundef @.str.2, i64 noundef %106) #27
  unreachable

107:                                              ; preds = %100
  %108 = load ptr, ptr %7, align 8, !tbaa !30
  %109 = load ptr, ptr %11, align 8, !tbaa !30
  %110 = load i64, ptr %12, align 8, !tbaa !31
  %111 = call nonnull ptr @ruby_nonempty_memcpy(ptr noundef %108, ptr noundef %109, i64 noundef %110) #25
  %112 = load ptr, ptr %7, align 8, !tbaa !30
  %113 = load i64, ptr %12, align 8, !tbaa !31
  %114 = getelementptr inbounds nuw i8, ptr %112, i64 %113
  store i8 0, ptr %114, align 1, !tbaa !51
  br label %115

115:                                              ; preds = %107
  br label %116

116:                                              ; preds = %115, %99
  br label %117

117:                                              ; preds = %116, %73
  %118 = load ptr, ptr %7, align 8, !tbaa !30
  store ptr %118, ptr %5, align 8
  call void @llvm.lifetime.end.p0(i64 8, ptr %12) #24
  call void @llvm.lifetime.end.p0(i64 8, ptr %11) #24
  br label %119

119:                                              ; preds = %117, %36, %17
  %120 = load ptr, ptr %5, align 8
  ret ptr %120
}