; Function Attrs: nounwind sspstrong uwtable
define noundef ptr @host_str(i64 noundef %0, ptr noundef %1, i64 noundef %2, ptr noundef captures(address_is_null) %3) local_unnamed_addr #0 {
  %5 = alloca %struct.sockaddr_in, align 4
  %6 = alloca %struct.sockaddr_in, align 4
  %7 = alloca i64, align 8
  store i64 %0, ptr %7, align 8, !tbaa !35
  %8 = icmp eq i64 %0, 4
  br i1 %8, label %53, label %9

9:                                                ; preds = %4
  %10 = load i64, ptr @rb_cInteger, align 8, !tbaa !35
  %11 = tail call i64 @rb_obj_is_kind_of(i64 noundef %0, i64 noundef %10) #21
  %.not = icmp eq i64 %11, 0
  br i1 %.not, label %22, label %12

12:                                               ; preds = %9
  %13 = tail call i64 @rb_num2uint(i64 noundef %0) #21
  %14 = trunc i64 %13 to i32
  %15 = tail call noundef i32 @llvm.bswap.i32(i32 %14)
  call void @llvm.lifetime.start.p0(i64 16, ptr nonnull %6) #21
  call void @llvm.memset.p0.i64(ptr noundef nonnull align 4 dereferenceable(16) %6, i8 noundef 0, i64 noundef 16, i1 noundef false) #21
  store i16 2, ptr %6, align 4, !tbaa !39
  %16 = getelementptr inbounds nuw i8, ptr %6, i64 4
  store i32 %15, ptr %16, align 4, !tbaa !43
  %17 = call i32 @rb_getnameinfo(ptr noundef nonnull readonly %6, i32 noundef 16, ptr noundef %1, i64 noundef %2, ptr noundef null, i64 noundef 0, i32 noundef 1)
  %.not.i.i = icmp eq i32 %17, 0
  br i1 %.not.i.i, label %make_inetaddr.exit, label %18

18:                                               ; preds = %12
  tail call void @rsock_raise_resolution_error(ptr noundef nonnull @.str.8, i32 noundef %17) #23
  unreachable

make_inetaddr.exit:                               ; preds = %12
  call void @llvm.lifetime.end.p0(i64 16, ptr nonnull %6) #21
  %.not42 = icmp eq ptr %3, null
  br i1 %.not42, label %53, label %19

19:                                               ; preds = %make_inetaddr.exit
  %20 = load i32, ptr %3, align 4, !tbaa !34
  %21 = or i32 %20, 4
  store i32 %21, ptr %3, align 4, !tbaa !34
  br label %53

22:                                               ; preds = %9
  %23 = call ptr @rb_string_value_cstr(ptr noundef nonnull %7) #21
  %24 = load i64, ptr %7, align 8, !tbaa !35
  %25 = inttoptr i64 %24 to ptr
  %26 = load i64, ptr %25, align 8, !tbaa !44, !noalias !46
  %27 = and i64 %26, 8192
  %.not.i = icmp eq i64 %27, 0
  %28 = getelementptr inbounds nuw i8, ptr %25, i64 24
  br i1 %.not.i, label %rbimpl_rstring_getmem.exit, label %29

29:                                               ; preds = %22
  %.sroa.5.0.copyload = load ptr, ptr %28, align 8
  br label %rbimpl_rstring_getmem.exit

rbimpl_rstring_getmem.exit:                       ; preds = %22, %29
  %.sroa.5.0 = phi ptr [ %.sroa.5.0.copyload, %29 ], [ %28, %22 ]
  %.sroa.3.0.in = getelementptr inbounds nuw i8, ptr %25, i64 16
  %.sroa.3.0 = load i64, ptr %.sroa.3.0.in, align 8, !tbaa !35
  %.not37 = icmp eq i64 %.sroa.3.0, 0
  br i1 %.not37, label %36, label %30

30:                                               ; preds = %rbimpl_rstring_getmem.exit
  %31 = load i8, ptr %.sroa.5.0, align 1, !tbaa !49
  %32 = icmp eq i8 %31, 60
  %33 = icmp eq i64 %.sroa.3.0, 5
  %or.cond = and i1 %33, %32
  br i1 %or.cond, label %34, label %42

34:                                               ; preds = %30
  %bcmp = call i32 @bcmp(ptr noundef nonnull dereferenceable(5) %.sroa.5.0, ptr noundef nonnull dereferenceable(5) @.str, i64 5)
  %35 = icmp eq i32 %bcmp, 0
  br i1 %35, label %36, label %.thread

36:                                               ; preds = %34, %rbimpl_rstring_getmem.exit
  call void @llvm.lifetime.start.p0(i64 16, ptr nonnull %5) #21
  call void @llvm.memset.p0.i64(ptr noundef nonnull align 4 dereferenceable(16) %5, i8 noundef 0, i64 noundef 16, i1 noundef false) #21
  store i16 2, ptr %5, align 4, !tbaa !39
  %37 = call i32 @rb_getnameinfo(ptr noundef nonnull readonly %5, i32 noundef 16, ptr noundef %1, i64 noundef %2, ptr noundef null, i64 noundef 0, i32 noundef 1)
  %.not.i.i43 = icmp eq i32 %37, 0
  br i1 %.not.i.i43, label %make_inetaddr.exit44, label %38

38:                                               ; preds = %36
  call void @rsock_raise_resolution_error(ptr noundef nonnull @.str.8, i32 noundef %37) #23
  unreachable

make_inetaddr.exit44:                             ; preds = %36
  call void @llvm.lifetime.end.p0(i64 16, ptr nonnull %5) #21
  %.not41 = icmp eq ptr %3, null
  br i1 %.not41, label %53, label %39

39:                                               ; preds = %make_inetaddr.exit44
  %40 = load i32, ptr %3, align 4, !tbaa !34
  %41 = or i32 %40, 4
  store i32 %41, ptr %3, align 4, !tbaa !34
  br label %53

42:                                               ; preds = %30
  %43 = icmp eq i64 %.sroa.3.0, 11
  %or.cond3 = and i1 %43, %32
  br i1 %or.cond3, label %44, label %.thread

44:                                               ; preds = %42
  %bcmp38 = call i32 @bcmp(ptr noundef nonnull dereferenceable(11) %.sroa.5.0, ptr noundef nonnull dereferenceable(11) @.str.1, i64 11)
  %45 = icmp eq i32 %bcmp38, 0
  br i1 %45, label %46, label %.thread

46:                                               ; preds = %44
  call fastcc void @make_inetaddr(i32 noundef -1, ptr noundef %1, i64 noundef %2)
  %.not40 = icmp eq ptr %3, null
  br i1 %.not40, label %53, label %47

47:                                               ; preds = %46
  %48 = load i32, ptr %3, align 4, !tbaa !34
  %49 = or i32 %48, 4
  store i32 %49, ptr %3, align 4, !tbaa !34
  br label %53

.thread:                                          ; preds = %34, %44, %42
  %.not39 = icmp ult i64 %.sroa.3.0, %2
  br i1 %.not39, label %ruby_nonempty_memcpy.exit, label %50

50:                                               ; preds = %.thread
  %51 = load i64, ptr @rb_eArgError, align 8, !tbaa !35
  call void (i64, ptr, ...) @rb_raise(i64 noundef %51, ptr noundef nonnull @.str.2, i64 noundef %.sroa.3.0) #23
  unreachable

ruby_nonempty_memcpy.exit:                        ; preds = %.thread
  call void @llvm.memcpy.p0.p0.i64(ptr noundef nonnull align 1 %1, ptr noundef nonnull readonly align 1 %.sroa.5.0, i64 noundef range(i64 1, 0) %.sroa.3.0, i1 noundef false) #21
  %52 = getelementptr inbounds nuw i8, ptr %1, i64 %.sroa.3.0
  store i8 0, ptr %52, align 1, !tbaa !49
  br label %53

53:                                               ; preds = %39, %make_inetaddr.exit44, %46, %47, %ruby_nonempty_memcpy.exit, %make_inetaddr.exit, %19, %4
  %.0 = phi ptr [ null, %4 ], [ %1, %19 ], [ %1, %make_inetaddr.exit ], [ %1, %ruby_nonempty_memcpy.exit ], [ %1, %47 ], [ %1, %46 ], [ %1, %make_inetaddr.exit44 ], [ %1, %39 ]
  ret ptr %.0
}